; Function Attrs: mustprogress nofree norecurse nosync nounwind willreturn memory(write, argmem: readwrite, inaccessiblemem: none) uwtable
define ptr @zend_llist_get_first_ex(ptr nocapture noundef %0, ptr noundef writeonly %1) local_unnamed_addr #9 {
  %.not = icmp eq ptr %1, null
  %3 = getelementptr inbounds i8, ptr %0, i64 48
  %4 = select i1 %.not, ptr %3, ptr %1
  %5 = load ptr, ptr %0, align 8
  store ptr %5, ptr %4, align 8
  %.not9 = icmp eq ptr %5, null
  %6 = getelementptr inbounds i8, ptr %5, i64 16
  %.0 = select i1 %.not9, ptr null, ptr %6
  ret ptr %.0
}